target datalayout = "e-m:e-p270:32:32-p271:32:32-p272:64:64-i64:64-i128:128-f80:128-n8:16:32:64-S128"
target triple = "x86_64-pc-linux-gnu"

%class.decl_plugin = type <{ ptr, ptr, i32, [4 x i8] }>

@.str.38 = private unnamed_addr constant [47 x i8] c"invalid number of arguments passed to function\00", align 1

; Function Attrs: mustprogress uwtable
define hidden void @_ZN17arith_decl_plugin11check_arityEjj(ptr noundef nonnull align 8 dereferenceable(441) %0, i32 noundef %1, i32 noundef %2) #4 align 2 {
  %4 = alloca ptr, align 8
  %5 = alloca i32, align 4
  %6 = alloca i32, align 4
  store ptr %0, ptr %4, align 8, !tbaa !3
  store i32 %1, ptr %5, align 4, !tbaa !36
  store i32 %2, ptr %6, align 4, !tbaa !36
  %7 = load ptr, ptr %4, align 8
  %8 = load i32, ptr %5, align 4, !tbaa !36
  %9 = load i32, ptr %6, align 4, !tbaa !36
  %10 = icmp ne i32 %8, %9
  br i1 %10, label %11, label %14

11:                                               ; preds = %3
  %12 = getelementptr inbounds nuw %class.decl_plugin, ptr %7, i32 0, i32 1
  %13 = load ptr, ptr %12, align 8, !tbaa !24
  call void @_ZN11ast_manager15raise_exceptionEPKc(ptr noundef nonnull align 8 dereferenceable(976) %13, ptr noundef @.str.38) #19
  unreachable

14:                                               ; preds = %3
  ret void
}