; Function Attrs: mustprogress uwtable
define hidden void @_ZN17arith_decl_plugin11check_arityEjj(ptr noundef nonnull readonly align 8 captures(none) dereferenceable(441) %0, i32 noundef %1, i32 noundef %2) local_unnamed_addr #3 align 2 {
  %.not = icmp eq i32 %1, %2
  br i1 %.not, label %7, label %4

4:                                                ; preds = %3
  %5 = getelementptr inbounds nuw i8, ptr %0, i64 8
  %6 = load ptr, ptr %5, align 8, !tbaa !22
  tail call void @_ZN11ast_manager15raise_exceptionEPKc(ptr noundef nonnull align 8 dereferenceable(976) %6, ptr noundef nonnull @.str.38) #26
  unreachable

7:                                                ; preds = %3
  ret void
}